; Function Attrs: nounwind uwtable
define void @Abc_NtkFinMiterCollect(ptr noundef captures(none) %0, ptr noundef readonly captures(none) %1, ptr noundef captures(none) initializes((4, 8)) %2, ptr noundef captures(none) initializes((4, 8)) %3) local_unnamed_addr #0 {
  %5 = getelementptr inbounds nuw i8, ptr %2, i64 4
  store i32 0, ptr %5, align 4, !tbaa !37
  %6 = getelementptr inbounds nuw i8, ptr %3, i64 4
  store i32 0, ptr %6, align 4, !tbaa !37
  %7 = getelementptr inbounds nuw i8, ptr %0, i64 232
  %8 = load ptr, ptr %7, align 8, !tbaa !102
  %.not.i = icmp eq ptr %8, null
  br i1 %.not.i, label %9, label %Abc_NtkIncrementTravId.exit

9:                                                ; preds = %4
  %10 = getelementptr inbounds nuw i8, ptr %0, i64 224
  %11 = getelementptr i8, ptr %0, i64 32
  %.val.i = load ptr, ptr %11, align 8, !tbaa !24
  %12 = getelementptr i8, ptr %.val.i, i64 4
  %.val.val.i = load i32, ptr %12, align 4, !tbaa !25
  %13 = add nsw i32 %.val.val.i, 500
  %14 = load i32, ptr %10, align 8, !tbaa !35
  %.not.i.i.i = icmp slt i32 %14, %13
  br i1 %.not.i.i.i, label %15, label %Vec_IntGrow.exit.i.i

15:                                               ; preds = %9
  %16 = sext i32 %13 to i64
  %17 = shl nsw i64 %16, 2
  %18 = tail call noalias ptr @malloc(i64 noundef %17) #34
  store ptr %18, ptr %7, align 8, !tbaa !36
  store i32 %13, ptr %10, align 8, !tbaa !35
  br label %Vec_IntGrow.exit.i.i

Vec_IntGrow.exit.i.i:                             ; preds = %15, %9
  %19 = phi ptr [ %18, %15 ], [ null, %9 ]
  %20 = icmp sgt i32 %.val.val.i, -500
  br i1 %20, label %.lr.ph.i.i, label %Vec_IntFill.exit.i

.lr.ph.i.i:                                       ; preds = %Vec_IntGrow.exit.i.i
  %wide.trip.count.i.i = zext nneg i32 %13 to i64
  %21 = shl nuw nsw i64 %wide.trip.count.i.i, 2
  tail call void @llvm.memset.p0.i64(ptr align 4 %19, i8 0, i64 %21, i1 false), !tbaa !34
  br label %Vec_IntFill.exit.i

Vec_IntFill.exit.i:                               ; preds = %.lr.ph.i.i, %Vec_IntGrow.exit.i.i
  %22 = getelementptr inbounds nuw i8, ptr %0, i64 228
  store i32 %13, ptr %22, align 4, !tbaa !37
  br label %Abc_NtkIncrementTravId.exit

Abc_NtkIncrementTravId.exit:                      ; preds = %4, %Vec_IntFill.exit.i
  %23 = getelementptr inbounds nuw i8, ptr %0, i64 216
  %24 = load i32, ptr %23, align 8, !tbaa !100
  %25 = add nsw i32 %24, 1
  store i32 %25, ptr %23, align 8, !tbaa !100
  %26 = getelementptr i8, ptr %1, i64 4
  %.val1417 = load i32, ptr %26, align 4, !tbaa !37
  %27 = icmp sgt i32 %.val1417, 0
  br i1 %27, label %.lr.ph, label %.critedge

.lr.ph:                                           ; preds = %Abc_NtkIncrementTravId.exit
  %28 = getelementptr i8, ptr %1, i64 8
  %29 = getelementptr i8, ptr %0, i64 32
  br label %30

30:                                               ; preds = %.lr.ph, %45
  %.val1420 = phi i32 [ %.val1417, %.lr.ph ], [ %.val14, %45 ]
  %indvars.iv = phi i64 [ 0, %.lr.ph ], [ %indvars.iv.next, %45 ]
  %.val13 = load ptr, ptr %28, align 8, !tbaa !36
  %31 = getelementptr inbounds nuw i32, ptr %.val13, i64 %indvars.iv
  %32 = load i32, ptr %31, align 4, !tbaa !34
  %.val = load ptr, ptr %29, align 8, !tbaa !24
  %33 = getelementptr i8, ptr %.val, i64 8
  %.val.val = load ptr, ptr %33, align 8, !tbaa !27
  %34 = sext i32 %32 to i64
  %35 = getelementptr inbounds ptr, ptr %.val.val, i64 %34
  %36 = load ptr, ptr %35, align 8, !tbaa !28
  %37 = icmp eq ptr %36, null
  br i1 %37, label %45, label %38

38:                                               ; preds = %30
  %.val15 = load ptr, ptr %36, align 8, !tbaa !51
  %39 = getelementptr i8, ptr %36, i64 32
  %.val16 = load ptr, ptr %39, align 8, !tbaa !52
  %40 = getelementptr i8, ptr %.val15, i64 32
  %.val15.val = load ptr, ptr %40, align 8, !tbaa !24
  %.val16.val = load i32, ptr %.val16, align 4, !tbaa !34
  %41 = getelementptr i8, ptr %.val15.val, i64 8
  %.val15.val.val = load ptr, ptr %41, align 8, !tbaa !27
  %42 = sext i32 %.val16.val to i64
  %43 = getelementptr inbounds ptr, ptr %.val15.val.val, i64 %42
  %44 = load ptr, ptr %43, align 8, !tbaa !28
  tail call void @Abc_NtkFinMiterCollect_rec(ptr noundef %44, ptr noundef %2, ptr noundef %3)
  %.val14.pre = load i32, ptr %26, align 4, !tbaa !37
  br label %45

45:                                               ; preds = %38, %30
  %.val14 = phi i32 [ %.val14.pre, %38 ], [ %.val1420, %30 ]
  %indvars.iv.next = add nuw nsw i64 %indvars.iv, 1
  %46 = sext i32 %.val14 to i64
  %47 = icmp slt i64 %indvars.iv.next, %46
  br i1 %47, label %30, label %.critedge, !llvm.loop !103

.critedge:                                        ; preds = %45, %Abc_NtkIncrementTravId.exit
  ret void
}